; Function Attrs: nounwind uwtable
define hidden void @zim_ReflectionClassConstant_isEnumCase(ptr noundef readonly captures(none) %0, ptr noundef writeonly captures(none) %1) #0 {
  %3 = getelementptr inbounds nuw i8, ptr %0, i64 32
  %4 = load ptr, ptr %3, align 8, !tbaa !26
  %5 = getelementptr inbounds i8, ptr %4, i64 -24
  %6 = load ptr, ptr %5, align 8, !tbaa !27
  %7 = icmp eq ptr %6, null
  br i1 %7, label %8, label %18

8:                                                ; preds = %2
  %9 = load ptr, ptr getelementptr inbounds nuw (i8, ptr @executor_globals, i64 960), align 8, !tbaa !39
  %.not6 = icmp eq ptr %9, null
  br i1 %.not6, label %15, label %10

10:                                               ; preds = %8
  %11 = getelementptr inbounds nuw i8, ptr %9, i64 16
  %12 = load ptr, ptr %11, align 8, !tbaa !34
  %13 = load ptr, ptr @reflection_exception_ptr, align 8, !tbaa !38
  %14 = icmp eq ptr %12, %13
  br i1 %14, label %24, label %15

15:                                               ; preds = %10, %8
  tail call void (ptr, ptr, ...) @zend_throw_error(ptr noundef null, ptr noundef nonnull @.str.10) #13
  %16 = load ptr, ptr getelementptr inbounds nuw (i8, ptr @executor_globals, i64 960), align 8, !tbaa !39
  %17 = icmp ne ptr %16, null
  tail call void @llvm.assume(i1 %17)
  br label %24

18:                                               ; preds = %2
  %19 = getelementptr inbounds nuw i8, ptr %6, i64 12
  %20 = load i32, ptr %19, align 4, !tbaa !26
  %21 = and i32 %20, 64
  %.not = icmp eq i32 %21, 0
  %22 = select i1 %.not, i32 2, i32 3
  %23 = getelementptr inbounds nuw i8, ptr %1, i64 8
  store i32 %22, ptr %23, align 8, !tbaa !26
  br label %24

24:                                               ; preds = %10, %18, %15
  ret void
}